(dp0
S'1'
p1
I1
sS'0'
p2
I0
sS'3'
p3
I3
sS'2'
p4
I2
sS'5'
p5
I5
sS'4'
p6
I4
sS'7'
p7
I7
sS'6'
p8
I6
sS'9'
p9
I9
sS'8'
p10
I8
sS'A'
p11
I36
sS'C'
p12
I38
sS'B'
p13
I37
sS'E'
p14
I40
sS'D'
p15
I39
sS'G'
p16
I42
sS'F'
p17
I41
sS'I'
p18
I44
sS'H'
p19
I43
sS'K'
p20
I46
sS'J'
p21
I45
sS'M'
p22
I48
sS'L'
p23
I47
sS'O'
p24
I50
sS'N'
p25
I49
sS'Q'
p26
I52
sS'P'
p27
I51
sS'S'
p28
I54
sS'R'
p29
I53
sS'U'
p30
I56
sS'T'
p31
I55
sS'W'
p32
I58
sS'V'
p33
I57
sS'Y'
p34
I60
sS'X'
p35
I59
sS'Z'
p36
I61
sS'a'
p37
I10
sS'c'
p38
I12
sS'b'
p39
I11
sS'e'
p40
I14
sS'd'
p41
I13
sS'g'
p42
I16
sS'f'
p43
I15
sS'i'
p44
I18
sS'h'
p45
I17
sS'k'
p46
I20
sS'j'
p47
I19
sS'm'
p48
I22
sS'l'
p49
I21
sS'o'
p50
I24
sS'n'
p51
I23
sS'q'
p52
I26
sS'p'
p53
I25
sS's'
p54
I28
sS'r'
p55
I27
sS'u'
p56
I30
sS't'
p57
I29
sS'w'
p58
I32
sS'v'
p59
I31
sS'y'
p60
I34
sS'x'
p61
I33
sS'z'
p62
I35
s.