(dp0
V\u8981
p1
I0
sV\u8f85
p2
I1
sV\u8c08
p3
I2
sV\u820c
p4
I3
sV\u9614
p5
I4
sV\u6297
p6
I5
sV\u5c18
p7
I6
sV\u4f1a
p8
I7
sV\u5a1c
p9
I8
sV\u5e9f
p10
I9
sV\u6b22
p11
I10
sV\u6e24
p12
I11
sV\u7126
p13
I12
sV\u5428
p14
I13
sV\u8bad
p15
I14
sV\u722c
p16
I15
sV\u6989
p17
I16
sV\u4fb5
p18
I17
sV\u8fdf
p19
I18
sV\u7136
p20
I19
sV\u65b9
p21
I20
sV\u5438
p22
I21
sV\u90bb
p23
I22
sV\u673a
p24
I23
sV\u4ebf
p25
I24
sV\u653e
p26
I25
sV\u89c1
p27
I26
sV\u7840
p28
I27
sV\u9644
p29
I28
sV\u53f2
p30
I29
sV\u574a
p31
I30
sV\u53cd
p32
I31
sV\u656c
p33
I32
sV\u51d1
p34
I33
sV\u5739
p35
I34
sV\u5662
p36
I35
sV\u5956
p37
I36
sV\u98db
p38
I37
sV\u8bdd
p39
I38
sV\u94e3
p40
I39
sV\u6362
p41
I40
sV\u7410
p42
I41
sV\u65e9
p43
I42
sV\u58eb
p44
I43
sV\u5bfb
p45
I44
sV\u7eef
p46
I45
sV\u6d6e
p47
I46
sV\u7070
p48
I47
sV\u5e74
p49
I48
sV\u4f0f
p50
I49
sV\u9176
p51
I50
sV\u95f9
p52
I51
sV\u8bfd
p53
I52
sV\u8c01
p54
I53
sV\u5403
p55
I54
sV\u7684
p56
I55
sV\u5207
p57
I56
sV\u8986
p58
I57
sV\u680b
p59
I58
sV\u7f8a
p60
I59
sV\u560f
p61
I60
sV\u5f15
p62
I61
sV\u5e94
p63
I62
sV\u9996
p64
I63
sV\u9519
p65
I64
sV\u8e7f
p66
I65
sV\u661f
p67
I66
sV\u68a0
p68
I67
sV\u7a76
p69
I68
sV\u5ba2
p70
I69
sV\u9970
p71
I70
sV\u82ac
p72
I71
sV\u662f
p73
I72
sV\u85ae
p74
I73
sV\u68b0
p75
I74
sV\u8bb2
p76
I75
sV\u5237
p77
I76
sV\u8d39
p78
I77
sV\u6cb8
p79
I78
sV\u87ba
p80
I79
sV\u62bc
p81
I80
sV\u963f
p82
I81
sV\u75be
p83
I82
sV\u68c0
p84
I83
sV\u7745
p85
I84
sV\u9ec4
p86
I85
sV\u89c6
p87
I86
sV\u54c8
p88
I87
sV\u6076
p89
I88
sV\u6070
p90
I89
sV\u4e4f
p91
I90
sV\u5f55
p92
I91
sV\u6559
p93
I92
sV\u51fb
p94
I93
sV\u4e5f
p95
I94
sV\u5dde
p96
I95
sV\u7baa
p97
I96
sV\u7a7a
p98
I97
sV\u6765
p99
I98
sV\u6ee4
p100
I99
sV\u56fd
p101
I100
sV\u706b
p102
I101
sV\u8fea
p103
I102
sV\u5a53
p104
I103
sV\u95ee
p105
I104
sV\u58f0
p106
I105
sV\u7c73
p107
I106
sV\u83f2
p108
I107
sV\u6ef4
p109
I108
sV\u8c28
p110
I109
sV\u6cf8
p111
I110
sV\u57fa
p112
I111
sV\u5e7f
p113
I112
sV\u6881
p114
I113
sV\u9001
p115
I114
sV\u5202
p116
I115
sV\u5f04
p117
I116
sV\u7387
p118
I117
sV\u7c89
p119
I118
sV\u4e0a
p120
I119
sV\u5e95
p121
I120
sV\u5ed8
p122
I121
sV\u6499
p123
I122
sV\u519b
p124
I123
sV\u4e1a
p125
I124
sV\u725b
p126
I125
sV\u80a1
p127
I126
sV\u73a2
p128
I127
sV\u63a7
p129
I128
sV\u94a9
p130
I129
sV\u7528
p131
I130
sV\u7b2c
p132
I131
sV\u6c2e
p133
I132
sV\u5411
p134
I133
sV\u7eb5
p135
I134
sV\u5734
p136
I135
sV\u83b7
p137
I136
sV\u5988
p138
I137
sV\u6cb9
p139
I138
sV\u8538
p140
I139
sV\u79bb
p141
I140
sV\u4e3a
p142
I141
sV\u77f3
p143
I142
sV\u953b
p144
I143
sV\u80c1
p145
I144
sV\u7ec5
p146
I145
sV\u56b7
p147
I146
sV\u5440
p148
I147
sV\u54c9
p149
I148
sV\u59cb
p150
I149
sV\u82cd
p151
I150
sV\u634c
p152
I151
sV\u67cf
p153
I152
sV\u8150
p154
I153
sV\u5f0f
p155
I154
sV\u53d7
p156
I155
sV\u94d9
p157
I156
sV\u8165
p158
I157
sV\u535c
p159
I158
sV\u57df
p160
I159
sV\u90e1
p161
I160
sV\u5c11
p162
I161
sV\u5f3a
p163
I162
sV\u4ee5
p164
I163
sV\u966a
p165
I164
sV\u4fef
p166
I165
sV\u5170
p167
I166
sV\u8272
p168
I167
sV\u53f7
p169
I168
sV\u5076
p170
I169
sV\u79fb
p171
I170
sV\u6d3e
p172
I171
sV\u77ff
p173
I172
sV\u6c7e
p174
I173
sV\u8001
p175
I174
sV\u5180
p176
I175
sV\u8282
p177
I176
sV\u6e05
p178
I177
sV\u6f84
p179
I178
sV\u6307
p180
I179
sV\u9886
p181
I180
sV\u5409
p182
I181
sV\u6d88
p183
I182
sV\u868a
p184
I183
sV\u970f
p185
I184
sV\u986f
p186
I185
sV\u61d2
p187
I186
sV\u4e9a
p188
I187
sV\u5b9c
p189
I188
sV\u5f1f
p190
I189
sV\u6625
p191
I190
sV\u7fa4
p192
I191
sV\u6b27
p193
I192
sV\u4ef0
p194
I193
sV\u4e1d
p195
I194
sV\u592b
p196
I195
sV\u7eaa
p197
I196
sV\u772f
p198
I197
sV\u51b0
p199
I198
sV\u6848
p200
I199
sV\u7701
p201
I200
sV\u4eba
p202
I201
sV\u5a3d
p203
I202
sV\u62c2
p204
I203
sV\u4e45
p205
I204
sV\u80c6
p206
I205
sV\u6c49
p207
I206
sV\u514b
p208
I207
sV\u6ff6
p209
I208
sV\u8fdb
p210
I209
sV\u5bcc
p211
I210
sV\u94ce
p212
I211
sV\u59d0
p213
I212
sV\u52d2
p214
I213
sV\u9655
p215
I214
sV\u8fd4
p216
I215
sV\u5b57
p217
I216
sV\u50d6
p218
I217
sV\u75d8
p219
I218
sV\u59bb
p220
I219
sV\u83dc
p221
I220
sV\u675f
p222
I221
sV\u91d1
p223
I222
sV\u6563
p224
I223
sV\u4e95
p225
I224
sV\u95e8
p226
I225
sV\u4eea
p227
I226
sV\u5427
p228
I227
sV\u79f0
p229
I228
sV\u4e1c
p230
I229
sV\u670b
p231
I230
sV\u56fa
p232
I231
sV\u5bfc
p233
I232
sV\u4f7f
p234
I233
sV\u8a00
p235
I234
sV\u8902
p236
I235
sV\u5404
p237
I236
sV\u6e2d
p238
I237
sV\u5e08
p239
I238
sV\u8d56
p240
I239
sV\u548f
p241
I240
sV\u6210
p242
I241
sV\u6912
p243
I242
sV\u6c14
p244
I243
sV\u6316
p245
I244
sV\u9885
p246
I245
sV\u6c9f
p247
I246
sV\u8ba1
p248
I247
sV\u5431
p249
I248
sV\u7b26
p250
I249
sV\u9017
p251
I250
sV\u83b1
p252
I251
sV\u5230
p253
I252
sV\u7eb2
p254
I253
sV\u6c34
p255
I254
sV\u8fb9
p256
I255
sV\u6e38
p257
I256
sV\u5f8b
p258
I257
sV\u6240
p259
I258
sV\u5dc5
p260
I259
sV\u8e48
p261
I260
sV\u54c0
p262
I261
sV\u554a
p263
I262
sV\u79cd
p264
I263
sV\u884c
p265
I264
sV\u574e
p266
I265
sV\u53d1
p267
I266
sV\u7ed3
p268
I267
sV\u6b62
p269
I268
sV\u818f
p270
I269
sV\u8fd9
p271
I270
sV\u4e58
p272
I271
sV\u59dd
p273
I272
sV\u753b
p274
I273
sV\u84df
p275
I274
sV\u975e
p276
I275
sV\u4ee3
p277
I276
sV\u5de5
p278
I277
sV\u50e7
p279
I278
sV\u4fe9
p280
I279
sV\u7076
p281
I280
sV\u66f3
p282
I281
sV\u5012
p283
I282
sV\u5e78
p284
I283
sV\u6301
p285
I284
sV\u6a80
p286
I285
sV\u5e03
p287
I286
sV\u5982
p288
I287
sV\u6f09
p289
I288
sV\u7a0b
p290
I289
sV\u590d
p291
I290
sV\u788c
p292
I291
sV\u9a6c
p293
I292
sV\u6c2a
p294
I293
sV\u5192
p295
I294
sV\u8428
p296
I295
sV\u8017
p297
I296
sV\u4f19
p298
I297
sV\u5e45
p299
I298
sV\u989c
p300
I299
sV\u8c1f
p301
I300
sV\u64a4
p302
I301
sV\u6027
p303
I302
sV\u53a6
p304
I303
sV\u7f29
p305
I304
sV\u85aa
p306
I305
sV\u592d
p307
I306
sV\u58f3
p308
I307
sV\u6c2f
p309
I308
sV\u7c27
p310
I309
sV\u4eac
p311
I310
sV\u7535
p312
I311
sV\u5bb6
p313
I312
sV\u6e90
p314
I313
sV\u523b
p315
I314
sV\u8fbe
p316
I315
sV\u5341
p317
I316
sV\u89c2
p318
I317
sV\u9047
p319
I318
sV\u57ce
p320
I319
sV\u89d2
p321
I320
sV\u8857
p322
I321
sV\u4ed8
p323
I322
sV\u625b
p324
I323
sV\u5361
p325
I324
sV\u5565
p326
I325
sV\u74e4
p327
I326
sV\u626b
p328
I327
sV\u95ea
p329
I328
sV\u996d
p330
I329
sV\u5e7c
p331
I330
sV\u72d2
p332
I331
sV\u7eff
p333
I332
sV\u6728
p334
I333
sV\u597d
p335
I334
sV\u73ab
p336
I335
sV\u5ffe
p337
I336
sV\u9002
p338
I337
sV\u5987
p339
I338
sV\u5206
p340
I339
sV\u70ad
p341
I340
sV\u8c0a
p342
I341
sV\u8c03
p343
I342
sV\u660e
p344
I343
sV\u6291
p345
I344
sV\u4f93
p346
I345
sV\u6012
p347
I346
sV\u6495
p348
I347
sV\u75af
p349
I348
sV\u9997
p350
I349
sV\u6216
p351
I350
sV\u7f18
p352
I351
sV\u989d
p353
I352
sV\u591c
p354
I353
sV\u5320
p355
I354
sV\u5a07
p356
I355
sV\u5730
p357
I356
sV\u7ea9
p358
I357
sV\u5728
p359
I358
sV\u5bab
p360
I359
sV\u9986
p361
I360
sV\u521c
p362
I361
sV\u6fb3
p363
I362
sV\u65af
p364
I363
sV\u82b1
p365
I364
sV\u8109
p366
I365
sV\u77b3
p367
I366
sV\u9738
p368
I367
sV\u53bb
p369
I368
sV\u5c3a
p370
I369
sV\u663e
p371
I370
sV\u5fc3
p372
I371
sV\u6577
p373
I372
sV\u9544
p374
I373
sV\u51e0
p375
I374
sV\u9636
p376
I375
sV\u5b50
p377
I376
sV\u6cd5
p378
I377
sV\u5e0f
p379
I378
sV\u7ed9
p380
I379
sV\u98dd
p381
I380
sV\u595c
p382
I381
sV\u72c2
p383
I382
sV\u5ae1
p384
I383
sV\u6062
p385
I384
sV\u54e5
p386
I385
sV\u8d64
p387
I386
sV\u6beb
p388
I387
sV\u8c6a
p389
I388
sV\u70ed
p390
I389
sV\u516c
p391
I390
sV\u8def
p392
I391
sV\u72f1
p393
I392
sV\u97f3
p394
I393
sV\u65e8
p395
I394
sV\u8bfb
p396
I395
sV\u4e3e
p397
I396
sV\u90fd
p398
I397
sV\u85ff
p399
I398
sV\u8a94
p400
I399
sV\u7b80
p401
I400
sV\u96ea
p402
I401
sV\u6405
p403
I402
sV\u5107
p404
I403
sV\u54e6
p405
I404
sV\u4e09
p406
I405
sV\u5f88
p407
I406
sV\u780d
p408
I407
sV\u518c
p409
I408
sV\u4f2f
p410
I409
sV\u6211
p411
I410
sV\u9f13
p412
I411
sV\u8892
p413
I412
sV\u5415
p414
I413
sV\u6296
p415
I414
sV\u8f98
p416
I415
sV\u601d
p417
I416
sV\u751f
p418
I417
sV\u8bfe
p419
I418
sV\u63a0
p420
I419
sV\u5723
p421
I420
sV\u5927
p422
I421
sV\u51f0
p423
I422
sV\u732b
p424
I423
sV\u5173
p425
I424
sV\u66ae
p426
I425
sV\u8231
p427
I426
sV\u8bb0
p428
I427
sV\u50b2
p429
I428
sV\u961f
p430
I429
sV\u5eb7
p431
I430
sV\u70c2
p432
I431
sV\u5c45
p433
I432
sV\u5377
p434
I433
sV\u5947
p435
I434
sV\u9ece
p436
I435
sV\u5f53
p437
I436
sV\u52b3
p438
I437
sV\u5408
p439
I438
sV\u55d4
p440
I439
sV\u5957
p441
I440
sV\u4fd8
p442
I441
sV\u5b5b
p443
I442
sV\u711a
p444
I443
sV\u5efa
p445
I444
sV\u82e6
p446
I445
sV\u767d
p447
I446
sV\u706d
p448
I447
sV\u76ee
p449
I448
sV\u62c9
p450
I449
sV\u53f0
p451
I450
sV\u95f4
p452
I451
sV\u6b7b
p453
I452
sV\u76fe
p454
I453
sV\u5883
p455
I454
sV\u5f02
p456
I455
sV\u5385
p457
I456
sV\u5200
p458
I457
sV\u5189
p459
I458
sV\u4f8d
p460
I459
sV\u660c
p461
I460
sV\u7eac
p462
I461
sV\u4ed9
p463
I462
sV\u5395
p464
I463
sV\u5e97
p465
I464
sV\u5c9b
p466
I465
sV\u5e1c
p467
I466
sV\u65a1
p468
I467
sV\u8c20
p469
I468
sV\u63a5
p470
I469
sV\u76ae
p471
I470
sV\u6843
p472
I471
sV\u532a
p473
I472
sV\u515c
p474
I473
sV\u6398
p475
I474
sV\u9732
p476
I475
sV\u7eb7
p477
I476
sV\u6536
p478
I477
sV\u59b9
p479
I478
sV\u6f5e
p480
I479
sV\u533a
p481
I480
sV\u52bf
p482
I481
sV\u5c40
p483
I482
sV\u7d0a
p484
I483
sV\u516d
p485
I484
sV\u86c7
p486
I485
sV\u4f60
p487
I486
sV\u91c9
p488
I487
sV\u5048
p489
I488
sV\u534a
p490
I489
sV\u5fcd
p491
I490
sV\u614e
p492
I491
sV\u5f52
p493
I492
sV\u6556
p494
I493
sV\u535a
p495
I494
sV\u4fdd
p496
I495
sV\u82df
p497
I496
sV\u9762
p498
I497
sV\u5de7
p499
I498
sV\u7ee7
p500
I499
sV\u5566
p501
I500
sV\u7aef
p502
I501
sV\u8427
p503
I502
sV\u65f1
p504
I503
sV\u60f3
p505
I504
sV\u5772
p506
I505
sV\u53f5
p507
I506
sV\u7c95
p508
I507
sV\u7cfb
p509
I508
sV\u5ffd
p510
I509
sV\u77eb
p511
I510
sV\u9501
p512
I511
sV\u5480
p513
I512
sV\u8003
p514
I513
sV\u8f82
p515
I514
sV\u795c
p516
I515
sV\u81ea
p517
I516
sV\u6109
p518
I517
sV\u540b
p519
I518
sV\u5316
p520
I519
sV\u670d
p521
I520
sV\u4e8c
p522
I521
sV\u556c
p523
I522
sV\u8490
p524
I523
sV\u79ef
p525
I524
sV\u4e03
p526
I525
sV\u541b
p527
I526
sV\u5b9a
p528
I527
sV\u5e9c
p529
I528
sV\u4ec4
p530
I529
sV\u611a
p531
I530
sV\u6325
p532
I531
sV\u62a4
p533
I532
sV\u8d1f
p534
I533
sV\u50a8
p535
I534
sV\u63aa
p536
I535
sV\u572d
p537
I536
sV\u53f3
p538
I537
sV\u949f
p539
I538
sV\u623f
p540
I539
sV\u9541
p541
I540
sV\u7ba1
p542
I541
sV\u6043
p543
I542
sV\u8c0c
p544
I543
sV\u5149
p545
I544
sV\u544b
p546
I545
sV\u53ca
p547
I546
sV\u4f4d
p548
I547
sV\u6551
p549
I548
sV\u5355
p550
I549
sV\u62d4
p551
I550
sV\u4fca
p552
I551
sV\u6378
p553
I552
sV\u5f5d
p554
I553
sV\u7edc
p555
I554
sV\u4e07
p556
I555
sV\u5561
p557
I556
sV\u8863
p558
I557
sV\u77e2
p559
I558
sV\u5b65
p560
I559
sV\u52e4
p561
I560
sV\u8138
p562
I561
sV\u90e8
p563
I562
sV\u946b
p564
I563
sV\u53ea
p565
I564
sV\u4eec
p566
I565
sV\u526f
p567
I566
sV\u65f6
p568
I567
sV\u5979
p569
I568
sV\u5bfa
p570
I569
sV\u8f7d
p571
I570
sV\u66fc
p572
I571
sV\u9c81
p573
I572
sV\u9500
p574
I573
sV\u5983
p575
I574
sV\u5e02
p576
I575
sV\u7406
p577
I576
sV\u7089
p578
I577
sV\u520a
p579
I578
sV\u6491
p580
I579
sV\u5f97
p581
I580
sV\u8c05
p582
I581
sV\u6ca1
p583
I582
sV\u7d20
p584
I583
sV\u8426
p585
I584
sV\u7686
p586
I585
sV\u5ead
p587
I586
sV\u672c
p588
I587
sV\u73af
p589
I588
sV\u7530
p590
I589
sV\u9632
p591
I590
sV\u62b5
p592
I591
sV\u5fb7
p593
I592
sV\u70b9
p594
I593
sV\u5938
p595
I594
sV\u9697
p596
I595
sV\u773c
p597
I596
sV\u8bbf
p598
I597
sV\u503e
p599
I598
sV\u94c1
p600
I599
sV\u62c5
p601
I600
sV\u8fc7
p602
I601
sV\u8c46
p603
I602
sV\u5948
p604
I603
sV\u7dcb
p605
I604
sV\u6bcf
p606
I605
sV\u5fd7
p607
I606
sV\u5a5a
p608
I607
sV\u89e3
p609
I608
sV\u5e62
p610
I609
sV\u7eed
p611
I610
sV\u8713
p612
I611
sV\u53ef
p613
I612
sV\u786e
p614
I613
sV\u6570
p615
I614
sV\u58f9
p616
I615
sV\u95fb
p617
I616
sV\u6b3e
p618
I617
sV\u4efd
p619
I618
sV\u606b
p620
I619
sV\u987e
p621
I620
sV\u5c01
p622
I621
sV\u7682
p623
I622
sV\u8205
p624
I623
sV\u5188
p625
I624
sV\u4e0d
p626
I625
sV\u708e
p627
I626
sV\u6c11
p628
I627
sV\u6590
p629
I628
sV\u8d42
p630
I629
sV\u9a6f
p631
I630
sV\u5f17
p632
I631
sV\u5496
p633
I632
sV\u629a
p634
I633
sV\u5e1d
p635
I634
sV\u94a6
p636
I635
sV\u752b
p637
I636
sV\u4e2d
p638
I637
sV\u77ac
p639
I638
sV\u90ae
p640
I639
sV\u5c31
p641
I640
sV\u8eb2
p642
I641
sV\u5bb4
p643
I642
sV\u6d3b
p644
I643
sV\u5e3d
p645
I644
sV\u86cb
p646
I645
sV\u6c41
p647
I646
sV\u5747
p648
I647
sV\u98ce
p649
I648
sV\u8153
p650
I649
sV\u76d2
p651
I650
sV\u5757
p652
I651
sV\u4f4e
p653
I652
sV\u4e5d
p654
I653
sV\u8fdc
p655
I654
sV\u98de
p656
I655
sV\u5c61
p657
I656
sV\u65e0
p658
I657
sV\u9650
p659
I658
sV\u5ea6
p660
I659
sV\u5c71
p661
I660
sV\u5229
p662
I661
sV\u5973
p663
I662
sV\u9152
p664
I663
sV\u8bf4
p665
I664
sV\u5777
p666
I665
sV\u74f6
p667
I666
sV\u52fa
p668
I667
sV\u5e7d
p669
I668
sV\u57fc
p670
I669
sV\u5854
p671
I670
sV\u9600
p672
I671
sV\u6f06
p673
I672
sV\u5b89
p674
I673
sV\u6208
p675
I674
sV\u4e8b
p676
I675
sV\u810a
p677
I676
sV\u540c
p678
I677
sV\u730e
p679
I678
sV\u7c97
p680
I679
sV\u591a
p681
I680
sV\u641c
p682
I681
sV\u902f
p683
I682
sV\u6620
p684
I683
sV\u7d22
p685
I684
sV\u73b0
p686
I685
sV\u8ba9
p687
I686
sV\u8eab
p688
I687
sV\u892a
p689
I688
sV\u542c
p690
I689
sV\u80af
p691
I690
sV\u871a
p692
I691
sV\u6c89
p693
I692
sV\u82b3
p694
I693
sV\u7532
p695
I694
sV\u793a
p696
I695
sV\u533e
p697
I696
sV\u4fe1
p698
I697
sV\u660a
p699
I698
sV\u7537
p700
I699
sV\u4f46
p701
I700
sV\u4ecb
p702
I701
sV\u534e
p703
I702
sV\u4fd1
p704
I703
sV\u4e50
p705
I704
sV\u62d3
p706
I705
sV\u8854
p707
I706
sV\u5f56
p708
I707
sV\u65e5
p709
I708
sV\u56db
p710
I709
sV\u515a
p711
I710
sV\u6ddd
p712
I711
sV\u545c
p713
I712
sV\u7fe1
p714
I713
sV\u8491
p715
I714
sV\u536e
p716
I715
sV\u5bf9
p717
I716
sV\u8695
p718
I717
sV\u4efb
p719
I718
sV\u55fd
p720
I719
sV\u9c7c
p721
I720
sV\u62ec
p722
I721
sV\u8680
p723
I722
sV\u6d6a
p724
I723
sV\u6905
p725
I724
sV\u6c07
p726
I725
sV\u6309
p727
I726
sV\u8c8c
p728
I727
sV\u680f
p729
I728
sV\u8ab9
p730
I729
sV\u5e90
p731
I730
sV\u4e00
p732
I731
sV\u5417
p733
I732
sV\u5319
p734
I733
sV\u636e
p735
I734
sV\u8d1d
p736
I735
sV\u9c9c
p737
I736
sV\u501f
p738
I737
sV\u7ea0
p739
I738
sV\u6c27
p740
I739
sV\u52a8
p741
I740
sV\u4e2b
p742
I741
sV\u7262
p743
I742
sV\u752d
p744
I743
sV\u602f
p745
I744
sV\u65f0
p746
I745
sV\u8c37
p747
I746
sV\u4e3b
p748
I747
sV\u64bc
p749
I748
sV\u60ca
p750
I749
sV\u5fc6
p751
I750
sV\u7b49
p752
I751
sV\u8bce
p753
I752
sV\u4f51
p754
I753
sV\u6253
p755
I754
sV\u75d2
p756
I755
sV\u6155
p757
I756
sV\u6c57
p758
I757
sV\u5556
p759
I758
sV\u4ece
p760
I759
sV\u655d
p761
I760
sV\u8bde
p762
I761
sV\u9761
p763
I762
sV\u6263
p764
I763
sV\u5965
p765
I764
sV\u4fe6
p766
I765
sV\u5426
p767
I766
sV\u606f
p768
I767
sV\u7ef0
p769
I768
sV\u9a73
p770
I769
sV\u95f2
p771
I770
sV\u9175
p772
I771
sV\u9528
p773
I772
sV\u5c55
p774
I773
sV\u51fa
p775
I774
sV\u6cfc
p776
I775
sV\u987f
p777
I776
sV\u75d4
p778
I777
sV\u5f00
p779
I778
sV\u5b83
p780
I779
sV\u8c02
p781
I780
sV\u5085
p782
I781
sV\u5904
p783
I782
sV\u5e06
p784
I783
sV\u5308
p785
I784
sV\u76d8
p786
I785
sV\u53eb
p787
I786
sV\u798f
p788
I787
sV\u7b93
p789
I788
sV\u8baf
p790
I789
sV\u6597
p791
I790
sV\u4e16
p792
I791
sV\u5720
p793
I792
sV\u50a5
p794
I793
sV\u65a7
p795
I794
sV\u5e26
p796
I795
sV\u7b28
p797
I796
sV\u57ab
p798
I797
sV\u602a
p799
I798
sV\u64ad
p800
I799
sV\u51af
p801
I800
sV\u6709
p802
I801
sV\u68b5
p803
I802
sV\u5934
p804
I803
sV\u85b7
p805
I804
sV\u5636
p806
I805
sV\u72b9
p807
I806
sV\u8338
p808
I807
sV\u77bb
p809
I808
sV\u99bf
p810
I809
sV\u7f34
p811
I810
sV\u7740
p812
I811
sV\u6c42
p813
I812
sV\u88c5
p814
I813
sV\u5ac9
p815
I814
sV\u654c
p816
I815
sV\u91cf
p817
I816
sV\u624e
p818
I817
sV\u5de8
p819
I818
sV\u8bd3
p820
I819
sV\u68bb
p821
I820
sV\u6600
p822
I821
sV\u6c28
p823
I822
sV\u8d38
p824
I823
sV\u77db
p825
I824
sV\u84dd
p826
I825
sV\u8d5c
p827
I826
sV\u9760
p828
I827
sV\u53e3
p829
I828
sV\u65e7
p830
I829
sV\u4e66
p831
I830
sV\u5feb
p832
I831
sV\u54ed
p833
I832
sV\u956c
p834
I833
sV\u51ef
p835
I834
sV\u4f3c
p836
I835
sV\u5f70
p837
I836
sV\u8bf3
p838
I837
sV\u9192
p839
I838
sV\u68f5
p840
I839
sV\u53bf
p841
I840
sV\u5378
p842
I841
sV\u7ffb
p843
I842
sV\u627e
p844
I843
sV\u4e01
p845
I844
sV\u8482
p846
I845
sV\u7984
p847
I846
sV\u4e86
p848
I847
sV\u770b
p849
I848
sV\u540d
p850
I849
sV\u6492
p851
I850
sV\u5b98
p852
I851
sV\u559c
p853
I852
sV\u6025
p854
I853
sV\u8d27
p855
I854
sV\u7ea6
p856
I855
sV\u8747
p857
I856
sV\u8ba8
p858
I857
sV\u642d
p859
I858
sV\u592f
p860
I859
sV\u6c1f
p861
I860
sV\u8d37
p862
I861
sV\u5239
p863
I862
sV\u64b8
p864
I863
sV\u80ba
p865
I864
sV\u513f
p866
I865
sV\u7e41
p867
I866
sV\u6fc0
p868
I867
sV\u64e6
p869
I868
sV\u89c4
p870
I869
sV\u76c6
p871
I870
sV\u6249
p872
I871
sV\u8bc8
p873
I872
sV\u5ef6
p874
I873
sV\u64d2
p875
I874
sV\u7855
p876
I875
sV\u76d6
p877
I876
sV\u53d8
p878
I877
sV\u4f5b
p879
I878
sV\u50da
p880
I879
sV\u5c5d
p881
I880
sV\u837b
p882
I881
sV\u9661
p883
I882
sV\u6b63
p884
I883
sV\u5065
p885
I884
sV\u51e4
p886
I885
sV\u6269
p887
I886
sV\u547d
p888
I887
sV\u9875
p889
I888
sV\u8d77
p890
I889
sV\u4ef6
p891
I890
sV\u8f7b
p892
I891
sV\u60fa
p893
I892
sV\u7c7d
p894
I893
sV\u797f
p895
I894
sV\u52fe
p896
I895
s.