(dp0
I0
V\u8981
p1
sI1
V\u8f85
p2
sI2
V\u8c08
p3
sI3
V\u820c
p4
sI4
V\u9614
p5
sI5
V\u6297
p6
sI6
V\u5c18
p7
sI7
V\u4f1a
p8
sI8
V\u5a1c
p9
sI9
V\u5e9f
p10
sI10
V\u6b22
p11
sI11
V\u6e24
p12
sI12
V\u7126
p13
sI13
V\u5428
p14
sI14
V\u8bad
p15
sI15
V\u722c
p16
sI16
V\u6989
p17
sI17
V\u4fb5
p18
sI18
V\u8fdf
p19
sI19
V\u7136
p20
sI20
V\u65b9
p21
sI21
V\u5438
p22
sI22
V\u90bb
p23
sI23
V\u673a
p24
sI24
V\u4ebf
p25
sI25
V\u653e
p26
sI26
V\u89c1
p27
sI27
V\u7840
p28
sI28
V\u9644
p29
sI29
V\u53f2
p30
sI30
V\u574a
p31
sI31
V\u53cd
p32
sI32
V\u656c
p33
sI33
V\u51d1
p34
sI34
V\u5739
p35
sI35
V\u5662
p36
sI36
V\u5956
p37
sI37
V\u98db
p38
sI38
V\u8bdd
p39
sI39
V\u94e3
p40
sI40
V\u6362
p41
sI41
V\u7410
p42
sI42
V\u65e9
p43
sI43
V\u58eb
p44
sI44
V\u5bfb
p45
sI45
V\u7eef
p46
sI46
V\u6d6e
p47
sI47
V\u7070
p48
sI48
V\u5e74
p49
sI49
V\u4f0f
p50
sI50
V\u9176
p51
sI51
V\u95f9
p52
sI52
V\u8bfd
p53
sI53
V\u8c01
p54
sI54
V\u5403
p55
sI55
V\u7684
p56
sI56
V\u5207
p57
sI57
V\u8986
p58
sI58
V\u680b
p59
sI59
V\u7f8a
p60
sI60
V\u560f
p61
sI61
V\u5f15
p62
sI62
V\u5e94
p63
sI63
V\u9996
p64
sI64
V\u9519
p65
sI65
V\u8e7f
p66
sI66
V\u661f
p67
sI67
V\u68a0
p68
sI68
V\u7a76
p69
sI69
V\u5ba2
p70
sI70
V\u9970
p71
sI71
V\u82ac
p72
sI72
V\u662f
p73
sI73
V\u85ae
p74
sI74
V\u68b0
p75
sI75
V\u8bb2
p76
sI76
V\u5237
p77
sI77
V\u8d39
p78
sI78
V\u6cb8
p79
sI79
V\u87ba
p80
sI80
V\u62bc
p81
sI81
V\u963f
p82
sI82
V\u75be
p83
sI83
V\u68c0
p84
sI84
V\u7745
p85
sI85
V\u9ec4
p86
sI86
V\u89c6
p87
sI87
V\u54c8
p88
sI88
V\u6076
p89
sI89
V\u6070
p90
sI90
V\u4e4f
p91
sI91
V\u5f55
p92
sI92
V\u6559
p93
sI93
V\u51fb
p94
sI94
V\u4e5f
p95
sI95
V\u5dde
p96
sI96
V\u7baa
p97
sI97
V\u7a7a
p98
sI98
V\u6765
p99
sI99
V\u6ee4
p100
sI100
V\u56fd
p101
sI101
V\u706b
p102
sI102
V\u8fea
p103
sI103
V\u5a53
p104
sI104
V\u95ee
p105
sI105
V\u58f0
p106
sI106
V\u7c73
p107
sI107
V\u83f2
p108
sI108
V\u6ef4
p109
sI109
V\u8c28
p110
sI110
V\u6cf8
p111
sI111
V\u57fa
p112
sI112
V\u5e7f
p113
sI113
V\u6881
p114
sI114
V\u9001
p115
sI115
V\u5202
p116
sI116
V\u5f04
p117
sI117
V\u7387
p118
sI118
V\u7c89
p119
sI119
V\u4e0a
p120
sI120
V\u5e95
p121
sI121
V\u5ed8
p122
sI122
V\u6499
p123
sI123
V\u519b
p124
sI124
V\u4e1a
p125
sI125
V\u725b
p126
sI126
V\u80a1
p127
sI127
V\u73a2
p128
sI128
V\u63a7
p129
sI129
V\u94a9
p130
sI130
V\u7528
p131
sI131
V\u7b2c
p132
sI132
V\u6c2e
p133
sI133
V\u5411
p134
sI134
V\u7eb5
p135
sI135
V\u5734
p136
sI136
V\u83b7
p137
sI137
V\u5988
p138
sI138
V\u6cb9
p139
sI139
V\u8538
p140
sI140
V\u79bb
p141
sI141
V\u4e3a
p142
sI142
V\u77f3
p143
sI143
V\u953b
p144
sI144
V\u80c1
p145
sI145
V\u7ec5
p146
sI146
V\u56b7
p147
sI147
V\u5440
p148
sI148
V\u54c9
p149
sI149
V\u59cb
p150
sI150
V\u82cd
p151
sI151
V\u634c
p152
sI152
V\u67cf
p153
sI153
V\u8150
p154
sI154
V\u5f0f
p155
sI155
V\u53d7
p156
sI156
V\u94d9
p157
sI157
V\u8165
p158
sI158
V\u535c
p159
sI159
V\u57df
p160
sI160
V\u90e1
p161
sI161
V\u5c11
p162
sI162
V\u5f3a
p163
sI163
V\u4ee5
p164
sI164
V\u966a
p165
sI165
V\u4fef
p166
sI166
V\u5170
p167
sI167
V\u8272
p168
sI168
V\u53f7
p169
sI169
V\u5076
p170
sI170
V\u79fb
p171
sI171
V\u6d3e
p172
sI172
V\u77ff
p173
sI173
V\u6c7e
p174
sI174
V\u8001
p175
sI175
V\u5180
p176
sI176
V\u8282
p177
sI177
V\u6e05
p178
sI178
V\u6f84
p179
sI179
V\u6307
p180
sI180
V\u9886
p181
sI181
V\u5409
p182
sI182
V\u6d88
p183
sI183
V\u868a
p184
sI184
V\u970f
p185
sI185
V\u986f
p186
sI186
V\u61d2
p187
sI187
V\u4e9a
p188
sI188
V\u5b9c
p189
sI189
V\u5f1f
p190
sI190
V\u6625
p191
sI191
V\u7fa4
p192
sI192
V\u6b27
p193
sI193
V\u4ef0
p194
sI194
V\u4e1d
p195
sI195
V\u592b
p196
sI196
V\u7eaa
p197
sI197
V\u772f
p198
sI198
V\u51b0
p199
sI199
V\u6848
p200
sI200
V\u7701
p201
sI201
V\u4eba
p202
sI202
V\u5a3d
p203
sI203
V\u62c2
p204
sI204
V\u4e45
p205
sI205
V\u80c6
p206
sI206
V\u6c49
p207
sI207
V\u514b
p208
sI208
V\u6ff6
p209
sI209
V\u8fdb
p210
sI210
V\u5bcc
p211
sI211
V\u94ce
p212
sI212
V\u59d0
p213
sI213
V\u52d2
p214
sI214
V\u9655
p215
sI215
V\u8fd4
p216
sI216
V\u5b57
p217
sI217
V\u50d6
p218
sI218
V\u75d8
p219
sI219
V\u59bb
p220
sI220
V\u83dc
p221
sI221
V\u675f
p222
sI222
V\u91d1
p223
sI223
V\u6563
p224
sI224
V\u4e95
p225
sI225
V\u95e8
p226
sI226
V\u4eea
p227
sI227
V\u5427
p228
sI228
V\u79f0
p229
sI229
V\u4e1c
p230
sI230
V\u670b
p231
sI231
V\u56fa
p232
sI232
V\u5bfc
p233
sI233
V\u4f7f
p234
sI234
V\u8a00
p235
sI235
V\u8902
p236
sI236
V\u5404
p237
sI237
V\u6e2d
p238
sI238
V\u5e08
p239
sI239
V\u8d56
p240
sI240
V\u548f
p241
sI241
V\u6210
p242
sI242
V\u6912
p243
sI243
V\u6c14
p244
sI244
V\u6316
p245
sI245
V\u9885
p246
sI246
V\u6c9f
p247
sI247
V\u8ba1
p248
sI248
V\u5431
p249
sI249
V\u7b26
p250
sI250
V\u9017
p251
sI251
V\u83b1
p252
sI252
V\u5230
p253
sI253
V\u7eb2
p254
sI254
V\u6c34
p255
sI255
V\u8fb9
p256
sI256
V\u6e38
p257
sI257
V\u5f8b
p258
sI258
V\u6240
p259
sI259
V\u5dc5
p260
sI260
V\u8e48
p261
sI261
V\u54c0
p262
sI262
V\u554a
p263
sI263
V\u79cd
p264
sI264
V\u884c
p265
sI265
V\u574e
p266
sI266
V\u53d1
p267
sI267
V\u7ed3
p268
sI268
V\u6b62
p269
sI269
V\u818f
p270
sI270
V\u8fd9
p271
sI271
V\u4e58
p272
sI272
V\u59dd
p273
sI273
V\u753b
p274
sI274
V\u84df
p275
sI275
V\u975e
p276
sI276
V\u4ee3
p277
sI277
V\u5de5
p278
sI278
V\u50e7
p279
sI279
V\u4fe9
p280
sI280
V\u7076
p281
sI281
V\u66f3
p282
sI282
V\u5012
p283
sI283
V\u5e78
p284
sI284
V\u6301
p285
sI285
V\u6a80
p286
sI286
V\u5e03
p287
sI287
V\u5982
p288
sI288
V\u6f09
p289
sI289
V\u7a0b
p290
sI290
V\u590d
p291
sI291
V\u788c
p292
sI292
V\u9a6c
p293
sI293
V\u6c2a
p294
sI294
V\u5192
p295
sI295
V\u8428
p296
sI296
V\u8017
p297
sI297
V\u4f19
p298
sI298
V\u5e45
p299
sI299
V\u989c
p300
sI300
V\u8c1f
p301
sI301
V\u64a4
p302
sI302
V\u6027
p303
sI303
V\u53a6
p304
sI304
V\u7f29
p305
sI305
V\u85aa
p306
sI306
V\u592d
p307
sI307
V\u58f3
p308
sI308
V\u6c2f
p309
sI309
V\u7c27
p310
sI310
V\u4eac
p311
sI311
V\u7535
p312
sI312
V\u5bb6
p313
sI313
V\u6e90
p314
sI314
V\u523b
p315
sI315
V\u8fbe
p316
sI316
V\u5341
p317
sI317
V\u89c2
p318
sI318
V\u9047
p319
sI319
V\u57ce
p320
sI320
V\u89d2
p321
sI321
V\u8857
p322
sI322
V\u4ed8
p323
sI323
V\u625b
p324
sI324
V\u5361
p325
sI325
V\u5565
p326
sI326
V\u74e4
p327
sI327
V\u626b
p328
sI328
V\u95ea
p329
sI329
V\u996d
p330
sI330
V\u5e7c
p331
sI331
V\u72d2
p332
sI332
V\u7eff
p333
sI333
V\u6728
p334
sI334
V\u597d
p335
sI335
V\u73ab
p336
sI336
V\u5ffe
p337
sI337
V\u9002
p338
sI338
V\u5987
p339
sI339
V\u5206
p340
sI340
V\u70ad
p341
sI341
V\u8c0a
p342
sI342
V\u8c03
p343
sI343
V\u660e
p344
sI344
V\u6291
p345
sI345
V\u4f93
p346
sI346
V\u6012
p347
sI347
V\u6495
p348
sI348
V\u75af
p349
sI349
V\u9997
p350
sI350
V\u6216
p351
sI351
V\u7f18
p352
sI352
V\u989d
p353
sI353
V\u591c
p354
sI354
V\u5320
p355
sI355
V\u5a07
p356
sI356
V\u5730
p357
sI357
V\u7ea9
p358
sI358
V\u5728
p359
sI359
V\u5bab
p360
sI360
V\u9986
p361
sI361
V\u521c
p362
sI362
V\u6fb3
p363
sI363
V\u65af
p364
sI364
V\u82b1
p365
sI365
V\u8109
p366
sI366
V\u77b3
p367
sI367
V\u9738
p368
sI368
V\u53bb
p369
sI369
V\u5c3a
p370
sI370
V\u663e
p371
sI371
V\u5fc3
p372
sI372
V\u6577
p373
sI373
V\u9544
p374
sI374
V\u51e0
p375
sI375
V\u9636
p376
sI376
V\u5b50
p377
sI377
V\u6cd5
p378
sI378
V\u5e0f
p379
sI379
V\u7ed9
p380
sI380
V\u98dd
p381
sI381
V\u595c
p382
sI382
V\u72c2
p383
sI383
V\u5ae1
p384
sI384
V\u6062
p385
sI385
V\u54e5
p386
sI386
V\u8d64
p387
sI387
V\u6beb
p388
sI388
V\u8c6a
p389
sI389
V\u70ed
p390
sI390
V\u516c
p391
sI391
V\u8def
p392
sI392
V\u72f1
p393
sI393
V\u97f3
p394
sI394
V\u65e8
p395
sI395
V\u8bfb
p396
sI396
V\u4e3e
p397
sI397
V\u90fd
p398
sI398
V\u85ff
p399
sI399
V\u8a94
p400
sI400
V\u7b80
p401
sI401
V\u96ea
p402
sI402
V\u6405
p403
sI403
V\u5107
p404
sI404
V\u54e6
p405
sI405
V\u4e09
p406
sI406
V\u5f88
p407
sI407
V\u780d
p408
sI408
V\u518c
p409
sI409
V\u4f2f
p410
sI410
V\u6211
p411
sI411
V\u9f13
p412
sI412
V\u8892
p413
sI413
V\u5415
p414
sI414
V\u6296
p415
sI415
V\u8f98
p416
sI416
V\u601d
p417
sI417
V\u751f
p418
sI418
V\u8bfe
p419
sI419
V\u63a0
p420
sI420
V\u5723
p421
sI421
V\u5927
p422
sI422
V\u51f0
p423
sI423
V\u732b
p424
sI424
V\u5173
p425
sI425
V\u66ae
p426
sI426
V\u8231
p427
sI427
V\u8bb0
p428
sI428
V\u50b2
p429
sI429
V\u961f
p430
sI430
V\u5eb7
p431
sI431
V\u70c2
p432
sI432
V\u5c45
p433
sI433
V\u5377
p434
sI434
V\u5947
p435
sI435
V\u9ece
p436
sI436
V\u5f53
p437
sI437
V\u52b3
p438
sI438
V\u5408
p439
sI439
V\u55d4
p440
sI440
V\u5957
p441
sI441
V\u4fd8
p442
sI442
V\u5b5b
p443
sI443
V\u711a
p444
sI444
V\u5efa
p445
sI445
V\u82e6
p446
sI446
V\u767d
p447
sI447
V\u706d
p448
sI448
V\u76ee
p449
sI449
V\u62c9
p450
sI450
V\u53f0
p451
sI451
V\u95f4
p452
sI452
V\u6b7b
p453
sI453
V\u76fe
p454
sI454
V\u5883
p455
sI455
V\u5f02
p456
sI456
V\u5385
p457
sI457
V\u5200
p458
sI458
V\u5189
p459
sI459
V\u4f8d
p460
sI460
V\u660c
p461
sI461
V\u7eac
p462
sI462
V\u4ed9
p463
sI463
V\u5395
p464
sI464
V\u5e97
p465
sI465
V\u5c9b
p466
sI466
V\u5e1c
p467
sI467
V\u65a1
p468
sI468
V\u8c20
p469
sI469
V\u63a5
p470
sI470
V\u76ae
p471
sI471
V\u6843
p472
sI472
V\u532a
p473
sI473
V\u515c
p474
sI474
V\u6398
p475
sI475
V\u9732
p476
sI476
V\u7eb7
p477
sI477
V\u6536
p478
sI478
V\u59b9
p479
sI479
V\u6f5e
p480
sI480
V\u533a
p481
sI481
V\u52bf
p482
sI482
V\u5c40
p483
sI483
V\u7d0a
p484
sI484
V\u516d
p485
sI485
V\u86c7
p486
sI486
V\u4f60
p487
sI487
V\u91c9
p488
sI488
V\u5048
p489
sI489
V\u534a
p490
sI490
V\u5fcd
p491
sI491
V\u614e
p492
sI492
V\u5f52
p493
sI493
V\u6556
p494
sI494
V\u535a
p495
sI495
V\u4fdd
p496
sI496
V\u82df
p497
sI497
V\u9762
p498
sI498
V\u5de7
p499
sI499
V\u7ee7
p500
sI500
V\u5566
p501
sI501
V\u7aef
p502
sI502
V\u8427
p503
sI503
V\u65f1
p504
sI504
V\u60f3
p505
sI505
V\u5772
p506
sI506
V\u53f5
p507
sI507
V\u7c95
p508
sI508
V\u7cfb
p509
sI509
V\u5ffd
p510
sI510
V\u77eb
p511
sI511
V\u9501
p512
sI512
V\u5480
p513
sI513
V\u8003
p514
sI514
V\u8f82
p515
sI515
V\u795c
p516
sI516
V\u81ea
p517
sI517
V\u6109
p518
sI518
V\u540b
p519
sI519
V\u5316
p520
sI520
V\u670d
p521
sI521
V\u4e8c
p522
sI522
V\u556c
p523
sI523
V\u8490
p524
sI524
V\u79ef
p525
sI525
V\u4e03
p526
sI526
V\u541b
p527
sI527
V\u5b9a
p528
sI528
V\u5e9c
p529
sI529
V\u4ec4
p530
sI530
V\u611a
p531
sI531
V\u6325
p532
sI532
V\u62a4
p533
sI533
V\u8d1f
p534
sI534
V\u50a8
p535
sI535
V\u63aa
p536
sI536
V\u572d
p537
sI537
V\u53f3
p538
sI538
V\u949f
p539
sI539
V\u623f
p540
sI540
V\u9541
p541
sI541
V\u7ba1
p542
sI542
V\u6043
p543
sI543
V\u8c0c
p544
sI544
V\u5149
p545
sI545
V\u544b
p546
sI546
V\u53ca
p547
sI547
V\u4f4d
p548
sI548
V\u6551
p549
sI549
V\u5355
p550
sI550
V\u62d4
p551
sI551
V\u4fca
p552
sI552
V\u6378
p553
sI553
V\u5f5d
p554
sI554
V\u7edc
p555
sI555
V\u4e07
p556
sI556
V\u5561
p557
sI557
V\u8863
p558
sI558
V\u77e2
p559
sI559
V\u5b65
p560
sI560
V\u52e4
p561
sI561
V\u8138
p562
sI562
V\u90e8
p563
sI563
V\u946b
p564
sI564
V\u53ea
p565
sI565
V\u4eec
p566
sI566
V\u526f
p567
sI567
V\u65f6
p568
sI568
V\u5979
p569
sI569
V\u5bfa
p570
sI570
V\u8f7d
p571
sI571
V\u66fc
p572
sI572
V\u9c81
p573
sI573
V\u9500
p574
sI574
V\u5983
p575
sI575
V\u5e02
p576
sI576
V\u7406
p577
sI577
V\u7089
p578
sI578
V\u520a
p579
sI579
V\u6491
p580
sI580
V\u5f97
p581
sI581
V\u8c05
p582
sI582
V\u6ca1
p583
sI583
V\u7d20
p584
sI584
V\u8426
p585
sI585
V\u7686
p586
sI586
V\u5ead
p587
sI587
V\u672c
p588
sI588
V\u73af
p589
sI589
V\u7530
p590
sI590
V\u9632
p591
sI591
V\u62b5
p592
sI592
V\u5fb7
p593
sI593
V\u70b9
p594
sI594
V\u5938
p595
sI595
V\u9697
p596
sI596
V\u773c
p597
sI597
V\u8bbf
p598
sI598
V\u503e
p599
sI599
V\u94c1
p600
sI600
V\u62c5
p601
sI601
V\u8fc7
p602
sI602
V\u8c46
p603
sI603
V\u5948
p604
sI604
V\u7dcb
p605
sI605
V\u6bcf
p606
sI606
V\u5fd7
p607
sI607
V\u5a5a
p608
sI608
V\u89e3
p609
sI609
V\u5e62
p610
sI610
V\u7eed
p611
sI611
V\u8713
p612
sI612
V\u53ef
p613
sI613
V\u786e
p614
sI614
V\u6570
p615
sI615
V\u58f9
p616
sI616
V\u95fb
p617
sI617
V\u6b3e
p618
sI618
V\u4efd
p619
sI619
V\u606b
p620
sI620
V\u987e
p621
sI621
V\u5c01
p622
sI622
V\u7682
p623
sI623
V\u8205
p624
sI624
V\u5188
p625
sI625
V\u4e0d
p626
sI626
V\u708e
p627
sI627
V\u6c11
p628
sI628
V\u6590
p629
sI629
V\u8d42
p630
sI630
V\u9a6f
p631
sI631
V\u5f17
p632
sI632
V\u5496
p633
sI633
V\u629a
p634
sI634
V\u5e1d
p635
sI635
V\u94a6
p636
sI636
V\u752b
p637
sI637
V\u4e2d
p638
sI638
V\u77ac
p639
sI639
V\u90ae
p640
sI640
V\u5c31
p641
sI641
V\u8eb2
p642
sI642
V\u5bb4
p643
sI643
V\u6d3b
p644
sI644
V\u5e3d
p645
sI645
V\u86cb
p646
sI646
V\u6c41
p647
sI647
V\u5747
p648
sI648
V\u98ce
p649
sI649
V\u8153
p650
sI650
V\u76d2
p651
sI651
V\u5757
p652
sI652
V\u4f4e
p653
sI653
V\u4e5d
p654
sI654
V\u8fdc
p655
sI655
V\u98de
p656
sI656
V\u5c61
p657
sI657
V\u65e0
p658
sI658
V\u9650
p659
sI659
V\u5ea6
p660
sI660
V\u5c71
p661
sI661
V\u5229
p662
sI662
V\u5973
p663
sI663
V\u9152
p664
sI664
V\u8bf4
p665
sI665
V\u5777
p666
sI666
V\u74f6
p667
sI667
V\u52fa
p668
sI668
V\u5e7d
p669
sI669
V\u57fc
p670
sI670
V\u5854
p671
sI671
V\u9600
p672
sI672
V\u6f06
p673
sI673
V\u5b89
p674
sI674
V\u6208
p675
sI675
V\u4e8b
p676
sI676
V\u810a
p677
sI677
V\u540c
p678
sI678
V\u730e
p679
sI679
V\u7c97
p680
sI680
V\u591a
p681
sI681
V\u641c
p682
sI682
V\u902f
p683
sI683
V\u6620
p684
sI684
V\u7d22
p685
sI685
V\u73b0
p686
sI686
V\u8ba9
p687
sI687
V\u8eab
p688
sI688
V\u892a
p689
sI689
V\u542c
p690
sI690
V\u80af
p691
sI691
V\u871a
p692
sI692
V\u6c89
p693
sI693
V\u82b3
p694
sI694
V\u7532
p695
sI695
V\u793a
p696
sI696
V\u533e
p697
sI697
V\u4fe1
p698
sI698
V\u660a
p699
sI699
V\u7537
p700
sI700
V\u4f46
p701
sI701
V\u4ecb
p702
sI702
V\u534e
p703
sI703
V\u4fd1
p704
sI704
V\u4e50
p705
sI705
V\u62d3
p706
sI706
V\u8854
p707
sI707
V\u5f56
p708
sI708
V\u65e5
p709
sI709
V\u56db
p710
sI710
V\u515a
p711
sI711
V\u6ddd
p712
sI712
V\u545c
p713
sI713
V\u7fe1
p714
sI714
V\u8491
p715
sI715
V\u536e
p716
sI716
V\u5bf9
p717
sI717
V\u8695
p718
sI718
V\u4efb
p719
sI719
V\u55fd
p720
sI720
V\u9c7c
p721
sI721
V\u62ec
p722
sI722
V\u8680
p723
sI723
V\u6d6a
p724
sI724
V\u6905
p725
sI725
V\u6c07
p726
sI726
V\u6309
p727
sI727
V\u8c8c
p728
sI728
V\u680f
p729
sI729
V\u8ab9
p730
sI730
V\u5e90
p731
sI731
V\u4e00
p732
sI732
V\u5417
p733
sI733
V\u5319
p734
sI734
V\u636e
p735
sI735
V\u8d1d
p736
sI736
V\u9c9c
p737
sI737
V\u501f
p738
sI738
V\u7ea0
p739
sI739
V\u6c27
p740
sI740
V\u52a8
p741
sI741
V\u4e2b
p742
sI742
V\u7262
p743
sI743
V\u752d
p744
sI744
V\u602f
p745
sI745
V\u65f0
p746
sI746
V\u8c37
p747
sI747
V\u4e3b
p748
sI748
V\u64bc
p749
sI749
V\u60ca
p750
sI750
V\u5fc6
p751
sI751
V\u7b49
p752
sI752
V\u8bce
p753
sI753
V\u4f51
p754
sI754
V\u6253
p755
sI755
V\u75d2
p756
sI756
V\u6155
p757
sI757
V\u6c57
p758
sI758
V\u5556
p759
sI759
V\u4ece
p760
sI760
V\u655d
p761
sI761
V\u8bde
p762
sI762
V\u9761
p763
sI763
V\u6263
p764
sI764
V\u5965
p765
sI765
V\u4fe6
p766
sI766
V\u5426
p767
sI767
V\u606f
p768
sI768
V\u7ef0
p769
sI769
V\u9a73
p770
sI770
V\u95f2
p771
sI771
V\u9175
p772
sI772
V\u9528
p773
sI773
V\u5c55
p774
sI774
V\u51fa
p775
sI775
V\u6cfc
p776
sI776
V\u987f
p777
sI777
V\u75d4
p778
sI778
V\u5f00
p779
sI779
V\u5b83
p780
sI780
V\u8c02
p781
sI781
V\u5085
p782
sI782
V\u5904
p783
sI783
V\u5e06
p784
sI784
V\u5308
p785
sI785
V\u76d8
p786
sI786
V\u53eb
p787
sI787
V\u798f
p788
sI788
V\u7b93
p789
sI789
V\u8baf
p790
sI790
V\u6597
p791
sI791
V\u4e16
p792
sI792
V\u5720
p793
sI793
V\u50a5
p794
sI794
V\u65a7
p795
sI795
V\u5e26
p796
sI796
V\u7b28
p797
sI797
V\u57ab
p798
sI798
V\u602a
p799
sI799
V\u64ad
p800
sI800
V\u51af
p801
sI801
V\u6709
p802
sI802
V\u68b5
p803
sI803
V\u5934
p804
sI804
V\u85b7
p805
sI805
V\u5636
p806
sI806
V\u72b9
p807
sI807
V\u8338
p808
sI808
V\u77bb
p809
sI809
V\u99bf
p810
sI810
V\u7f34
p811
sI811
V\u7740
p812
sI812
V\u6c42
p813
sI813
V\u88c5
p814
sI814
V\u5ac9
p815
sI815
V\u654c
p816
sI816
V\u91cf
p817
sI817
V\u624e
p818
sI818
V\u5de8
p819
sI819
V\u8bd3
p820
sI820
V\u68bb
p821
sI821
V\u6600
p822
sI822
V\u6c28
p823
sI823
V\u8d38
p824
sI824
V\u77db
p825
sI825
V\u84dd
p826
sI826
V\u8d5c
p827
sI827
V\u9760
p828
sI828
V\u53e3
p829
sI829
V\u65e7
p830
sI830
V\u4e66
p831
sI831
V\u5feb
p832
sI832
V\u54ed
p833
sI833
V\u956c
p834
sI834
V\u51ef
p835
sI835
V\u4f3c
p836
sI836
V\u5f70
p837
sI837
V\u8bf3
p838
sI838
V\u9192
p839
sI839
V\u68f5
p840
sI840
V\u53bf
p841
sI841
V\u5378
p842
sI842
V\u7ffb
p843
sI843
V\u627e
p844
sI844
V\u4e01
p845
sI845
V\u8482
p846
sI846
V\u7984
p847
sI847
V\u4e86
p848
sI848
V\u770b
p849
sI849
V\u540d
p850
sI850
V\u6492
p851
sI851
V\u5b98
p852
sI852
V\u559c
p853
sI853
V\u6025
p854
sI854
V\u8d27
p855
sI855
V\u7ea6
p856
sI856
V\u8747
p857
sI857
V\u8ba8
p858
sI858
V\u642d
p859
sI859
V\u592f
p860
sI860
V\u6c1f
p861
sI861
V\u8d37
p862
sI862
V\u5239
p863
sI863
V\u64b8
p864
sI864
V\u80ba
p865
sI865
V\u513f
p866
sI866
V\u7e41
p867
sI867
V\u6fc0
p868
sI868
V\u64e6
p869
sI869
V\u89c4
p870
sI870
V\u76c6
p871
sI871
V\u6249
p872
sI872
V\u8bc8
p873
sI873
V\u5ef6
p874
sI874
V\u64d2
p875
sI875
V\u7855
p876
sI876
V\u76d6
p877
sI877
V\u53d8
p878
sI878
V\u4f5b
p879
sI879
V\u50da
p880
sI880
V\u5c5d
p881
sI881
V\u837b
p882
sI882
V\u9661
p883
sI883
V\u6b63
p884
sI884
V\u5065
p885
sI885
V\u51e4
p886
sI886
V\u6269
p887
sI887
V\u547d
p888
sI888
V\u9875
p889
sI889
V\u8d77
p890
sI890
V\u4ef6
p891
sI891
V\u8f7b
p892
sI892
V\u60fa
p893
sI893
V\u7c7d
p894
sI894
V\u797f
p895
sI895
V\u52fe
p896
s.